; Function Attrs: nounwind uwtable
define dso_local void @addReplyPubsubMessage(ptr noundef %0, ptr noundef %1, ptr noundef %2, ptr noundef %3) local_unnamed_addr #2 {
  %5 = getelementptr inbounds nuw i8, ptr %0, i64 8
  %6 = load i64, ptr %5, align 8, !tbaa !31
  %7 = or i64 %6, 70368744177664
  store i64 %7, ptr %5, align 8, !tbaa !31
  %8 = getelementptr inbounds nuw i8, ptr %0, i64 28
  %9 = load i32, ptr %8, align 4, !tbaa !32
  %10 = icmp eq i32 %9, 2
  br i1 %10, label %11, label %13

11:                                               ; preds = %4
  %12 = load ptr, ptr getelementptr inbounds nuw (i8, ptr @shared, i64 80904), align 8, !tbaa !33
  tail call void @addReply(ptr noundef nonnull %0, ptr noundef %12) #9
  br label %14

13:                                               ; preds = %4
  tail call void @addReplyPushLen(ptr noundef nonnull %0, i64 noundef 3) #9
  br label %14

14:                                               ; preds = %13, %11
  tail call void @addReply(ptr noundef nonnull %0, ptr noundef %3) #9
  tail call void @addReplyBulk(ptr noundef nonnull %0, ptr noundef %1) #9
  %.not = icmp eq ptr %2, null
  br i1 %.not, label %16, label %15

15:                                               ; preds = %14
  tail call void @addReplyBulk(ptr noundef nonnull %0, ptr noundef nonnull %2) #9
  br label %16

16:                                               ; preds = %15, %14
  %17 = and i64 %6, 70368744177664
  %.not13 = icmp eq i64 %17, 0
  br i1 %.not13, label %18, label %21

18:                                               ; preds = %16
  %19 = load i64, ptr %5, align 8, !tbaa !31
  %20 = and i64 %19, -70368744177665
  store i64 %20, ptr %5, align 8, !tbaa !31
  br label %21

21:                                               ; preds = %18, %16
  ret void
}